; Function Attrs: nounwind uwtable
define ptr @l_Lean_LocalContext_mkLambda___boxed(ptr noundef %0, ptr noundef %1, ptr noundef %2) local_unnamed_addr #2 {
  %4 = tail call ptr @lean_expr_abstract(ptr noundef %2, ptr noundef %1) #8
  %5 = getelementptr i8, ptr %1, i64 8
  %.val.i = load i64, ptr %5, align 8, !tbaa !12
  tail call void @lean_inc_heartbeat() #8
  %6 = tail call noalias ptr @mi_malloc_small(i64 noundef 40) #8
  %7 = icmp eq ptr %6, null
  br i1 %7, label %8, label %l_Lean_LocalContext_mkLambda.exit

8:                                                ; preds = %3
  tail call void @lean_internal_panic_out_of_memory() #9
  unreachable

l_Lean_LocalContext_mkLambda.exit:                ; preds = %3
  %9 = shl i64 %.val.i, 1
  %10 = or disjoint i64 %9, 1
  %11 = inttoptr i64 %10 to ptr
  %12 = getelementptr inbounds nuw i8, ptr %6, i64 4
  store i32 1, ptr %6, align 4, !tbaa !4
  store i32 -184549336, ptr %12, align 4
  %13 = getelementptr inbounds nuw i8, ptr %6, i64 8
  store ptr @l_Lean_LocalContext_mkLambda___lambda__1___boxed, ptr %13, align 8, !tbaa !9
  %14 = getelementptr inbounds nuw i8, ptr %6, i64 16
  store i16 5, ptr %14, align 8, !tbaa !14
  %15 = getelementptr inbounds nuw i8, ptr %6, i64 18
  store i16 2, ptr %15, align 2, !tbaa !14
  %16 = getelementptr inbounds nuw i8, ptr %6, i64 24
  store ptr %1, ptr %16, align 8, !tbaa !9
  %17 = getelementptr inbounds nuw i8, ptr %6, i64 32
  store ptr %0, ptr %17, align 8, !tbaa !9
  %18 = tail call ptr @l_Nat_foldRev___rarg(ptr noundef nonnull %11, ptr noundef nonnull %6, ptr noundef %4) #8
  %19 = ptrtoint ptr %2 to i64
  %20 = and i64 %19, 1
  %.not = icmp eq i64 %20, 0
  br i1 %.not, label %21, label %lean_dec.exit

21:                                               ; preds = %l_Lean_LocalContext_mkLambda.exit
  %22 = load i32, ptr %2, align 4, !tbaa !4
  %23 = icmp sgt i32 %22, 1
  br i1 %23, label %24, label %26, !prof !11

24:                                               ; preds = %21
  %25 = add nsw i32 %22, -1
  store i32 %25, ptr %2, align 4, !tbaa !4
  br label %lean_dec.exit

26:                                               ; preds = %21
  %.not.i = icmp eq i32 %22, 0
  br i1 %.not.i, label %lean_dec.exit, label %27

27:                                               ; preds = %26
  tail call void @lean_dec_ref_cold(ptr noundef nonnull %2) #8
  br label %lean_dec.exit

lean_dec.exit:                                    ; preds = %27, %26, %24, %l_Lean_LocalContext_mkLambda.exit
  ret ptr %18
}